target datalayout = "e-m:e-p270:32:32-p271:32:32-p272:64:64-i64:64-i128:128-f80:128-n8:16:32:64-S128"
target triple = "x86_64-pc-linux-gnu"

; Function Attrs: alwaysinline nounwind willreturn memory(none) uwtable
define internal i32 @av_clip_intp2_c(i32 noundef %0, i32 noundef %1) #4 {
  %3 = alloca i32, align 4
  %4 = alloca i32, align 4
  %5 = alloca i32, align 4
  store i32 %0, ptr %4, align 4, !tbaa !34
  store i32 %1, ptr %5, align 4, !tbaa !34
  %6 = load i32, ptr %4, align 4, !tbaa !34
  %7 = load i32, ptr %5, align 4, !tbaa !34
  %8 = shl i32 1, %7
  %9 = add i32 %6, %8
  %10 = load i32, ptr %5, align 4, !tbaa !34
  %11 = shl i32 2, %10
  %12 = sub i32 %11, 1
  %13 = xor i32 %12, -1
  %14 = and i32 %9, %13
  %15 = icmp ne i32 %14, 0
  br i1 %15, label %16, label %23

16:                                               ; preds = %2
  %17 = load i32, ptr %4, align 4, !tbaa !34
  %18 = ashr i32 %17, 31
  %19 = load i32, ptr %5, align 4, !tbaa !34
  %20 = shl i32 1, %19
  %21 = sub nsw i32 %20, 1
  %22 = xor i32 %18, %21
  store i32 %22, ptr %3, align 4
  br label %25

23:                                               ; preds = %2
  %24 = load i32, ptr %4, align 4, !tbaa !34
  store i32 %24, ptr %3, align 4
  br label %25

25:                                               ; preds = %23, %16
  %26 = load i32, ptr %3, align 4
  ret i32 %26
}

; Function Attrs: inlinehint nounwind uwtable
define internal i32 @norm__(i64 noundef %0, i32 noundef %1) #3 {
  %3 = alloca i32, align 4
  %4 = alloca i64, align 8
  %5 = alloca i32, align 4
  store i64 %0, ptr %4, align 8, !tbaa !32
  store i32 %1, ptr %5, align 4, !tbaa !34
  %6 = load i32, ptr %5, align 4, !tbaa !34
  %7 = icmp sgt i32 %6, 0
  br i1 %7, label %8, label %19

8:                                                ; preds = %2
  %9 = load i64, ptr %4, align 8, !tbaa !32
  %10 = load i32, ptr %5, align 4, !tbaa !34
  %11 = sub nsw i32 %10, 1
  %12 = zext i32 %11 to i64
  %13 = shl i64 1, %12
  %14 = add nsw i64 %9, %13
  %15 = load i32, ptr %5, align 4, !tbaa !34
  %16 = zext i32 %15 to i64
  %17 = ashr i64 %14, %16
  %18 = trunc i64 %17 to i32
  store i32 %18, ptr %3, align 4
  br label %22

19:                                               ; preds = %2
  %20 = load i64, ptr %4, align 8, !tbaa !32
  %21 = trunc i64 %20 to i32
  store i32 %21, ptr %3, align 4
  br label %22

22:                                               ; preds = %19, %8
  %23 = load i32, ptr %3, align 4
  ret i32 %23
}

; Function Attrs: inlinehint nounwind uwtable
define internal i32 @clip23(i32 noundef %0) #3 {
  %2 = alloca i32, align 4
  store i32 %0, ptr %2, align 4, !tbaa !34
  %3 = load i32, ptr %2, align 4, !tbaa !34
  %4 = call i32 @av_clip_intp2_c(i32 noundef %3, i32 noundef 23) #8
  ret i32 %4
}

; Function Attrs: inlinehint nounwind uwtable
define internal i32 @norm23(i64 noundef %0) #3 {
  %2 = alloca i64, align 8
  store i64 %0, ptr %2, align 8, !tbaa !32
  %3 = load i64, ptr %2, align 8, !tbaa !32
  %4 = call i32 @norm__(i64 noundef %3, i32 noundef 23)
  ret i32 %4
}

; Function Attrs: nounwind uwtable
define internal void @lfe_x96_fixed_c(ptr noundef %0, ptr noundef %1, ptr noundef %2, i64 noundef %3) #1 {
  %5 = alloca ptr, align 8
  %6 = alloca ptr, align 8
  %7 = alloca ptr, align 8
  %8 = alloca i64, align 8
  %9 = alloca i32, align 4
  %10 = alloca i32, align 4
  %11 = alloca i64, align 8
  %12 = alloca i64, align 8
  store ptr %0, ptr %5, align 8, !tbaa !28
  store ptr %1, ptr %6, align 8, !tbaa !28
  store ptr %2, ptr %7, align 8, !tbaa !28
  store i64 %3, ptr %8, align 8, !tbaa !32
  call void @llvm.lifetime.start.p0(i64 4, ptr %9) #7
  %13 = load ptr, ptr %7, align 8, !tbaa !28
  %14 = load i32, ptr %13, align 4, !tbaa !34
  store i32 %14, ptr %9, align 4, !tbaa !34
  call void @llvm.lifetime.start.p0(i64 4, ptr %10) #7
  store i32 0, ptr %10, align 4, !tbaa !34
  br label %15

15:                                               ; preds = %58, %4
  %16 = load i32, ptr %10, align 4, !tbaa !34
  %17 = sext i32 %16 to i64
  %18 = load i64, ptr %8, align 8, !tbaa !32
  %19 = icmp slt i64 %17, %18
  br i1 %19, label %20, label %61

20:                                               ; preds = %15
  call void @llvm.lifetime.start.p0(i64 8, ptr %11) #7
  %21 = load ptr, ptr %6, align 8, !tbaa !28
  %22 = load i32, ptr %10, align 4, !tbaa !34
  %23 = sext i32 %22 to i64
  %24 = getelementptr inbounds i32, ptr %21, i64 %23
  %25 = load i32, ptr %24, align 4, !tbaa !34
  %26 = sext i32 %25 to i64
  %27 = mul nsw i64 2097471, %26
  %28 = load i32, ptr %9, align 4, !tbaa !34
  %29 = sext i32 %28 to i64
  %30 = mul nsw i64 6291137, %29
  %31 = add nsw i64 %27, %30
  store i64 %31, ptr %11, align 8, !tbaa !32
  call void @llvm.lifetime.start.p0(i64 8, ptr %12) #7
  %32 = load ptr, ptr %6, align 8, !tbaa !28
  %33 = load i32, ptr %10, align 4, !tbaa !34
  %34 = sext i32 %33 to i64
  %35 = getelementptr inbounds i32, ptr %32, i64 %34
  %36 = load i32, ptr %35, align 4, !tbaa !34
  %37 = sext i32 %36 to i64
  %38 = mul nsw i64 6291137, %37
  %39 = load i32, ptr %9, align 4, !tbaa !34
  %40 = sext i32 %39 to i64
  %41 = mul nsw i64 2097471, %40
  %42 = add nsw i64 %38, %41
  store i64 %42, ptr %12, align 8, !tbaa !32
  %43 = load ptr, ptr %6, align 8, !tbaa !28
  %44 = load i32, ptr %10, align 4, !tbaa !34
  %45 = sext i32 %44 to i64
  %46 = getelementptr inbounds i32, ptr %43, i64 %45
  %47 = load i32, ptr %46, align 4, !tbaa !34
  store i32 %47, ptr %9, align 4, !tbaa !34
  %48 = load i64, ptr %11, align 8, !tbaa !32
  %49 = call i32 @norm23(i64 noundef %48)
  %50 = call i32 @clip23(i32 noundef %49)
  %51 = load ptr, ptr %5, align 8, !tbaa !28
  %52 = getelementptr inbounds nuw i32, ptr %51, i32 1
  store ptr %52, ptr %5, align 8, !tbaa !28
  store i32 %50, ptr %51, align 4, !tbaa !34
  %53 = load i64, ptr %12, align 8, !tbaa !32
  %54 = call i32 @norm23(i64 noundef %53)
  %55 = call i32 @clip23(i32 noundef %54)
  %56 = load ptr, ptr %5, align 8, !tbaa !28
  %57 = getelementptr inbounds nuw i32, ptr %56, i32 1
  store ptr %57, ptr %5, align 8, !tbaa !28
  store i32 %55, ptr %56, align 4, !tbaa !34
  call void @llvm.lifetime.end.p0(i64 8, ptr %12) #7
  call void @llvm.lifetime.end.p0(i64 8, ptr %11) #7
  br label %58

58:                                               ; preds = %20
  %59 = load i32, ptr %10, align 4, !tbaa !34
  %60 = add nsw i32 %59, 1
  store i32 %60, ptr %10, align 4, !tbaa !34
  br label %15, !llvm.loop !63

61:                                               ; preds = %15
  %62 = load i32, ptr %9, align 4, !tbaa !34
  %63 = load ptr, ptr %7, align 8, !tbaa !28
  store i32 %62, ptr %63, align 4, !tbaa !34
  call void @llvm.lifetime.end.p0(i64 4, ptr %10) #7
  call void @llvm.lifetime.end.p0(i64 4, ptr %9) #7
  ret void
}