; Function Attrs: nofree norecurse nosync nounwind memory(argmem: readwrite) uwtable
define internal void @lfe_x96_fixed_c(ptr noundef writeonly captures(none) %0, ptr noundef readonly captures(none) %1, ptr noundef captures(none) %2, i64 noundef %3) #3 {
  %5 = load i32, ptr %2, align 4, !tbaa !23
  %6 = icmp sgt i64 %3, 0
  br i1 %6, label %.lr.ph, label %._crit_edge

.lr.ph:                                           ; preds = %4, %.lr.ph
  %indvars.iv = phi i64 [ %indvars.iv.next, %.lr.ph ], [ 0, %4 ]
  %.023 = phi ptr [ %26, %.lr.ph ], [ %0, %4 ]
  %.01722 = phi i32 [ %8, %.lr.ph ], [ %5, %4 ]
  %7 = getelementptr inbounds nuw i32, ptr %1, i64 %indvars.iv
  %8 = load i32, ptr %7, align 4, !tbaa !23
  %9 = sext i32 %8 to i64
  %10 = mul nsw i64 %9, 2097471
  %11 = sext i32 %.01722 to i64
  %12 = mul nsw i64 %11, 6291137
  %13 = mul nsw i64 %9, 6291137
  %14 = mul nsw i64 %11, 2097471
  %15 = add nsw i64 %12, 4194304
  %16 = add nsw i64 %15, %10
  %17 = lshr i64 %16, 23
  %18 = trunc i64 %17 to i32
  %19 = tail call i32 @llvm.smax.i32(i32 %18, i32 -8388608)
  %.0.i.i = tail call range(i32 -8388608, 8388608) i32 @llvm.smin.i32(i32 %19, i32 8388607)
  %20 = getelementptr inbounds nuw i8, ptr %.023, i64 4
  store i32 %.0.i.i, ptr %.023, align 4, !tbaa !23
  %21 = add nsw i64 %14, 4194304
  %22 = add nsw i64 %21, %13
  %23 = lshr i64 %22, 23
  %24 = trunc i64 %23 to i32
  %25 = tail call i32 @llvm.smax.i32(i32 %24, i32 -8388608)
  %.0.i.i20 = tail call range(i32 -8388608, 8388608) i32 @llvm.smin.i32(i32 %25, i32 8388607)
  %26 = getelementptr inbounds nuw i8, ptr %.023, i64 8
  store i32 %.0.i.i20, ptr %20, align 4, !tbaa !23
  %indvars.iv.next = add nuw nsw i64 %indvars.iv, 1
  %exitcond.not = icmp eq i64 %indvars.iv.next, %3
  br i1 %exitcond.not, label %._crit_edge, label %.lr.ph, !llvm.loop !51

._crit_edge:                                      ; preds = %.lr.ph, %4
  %.017.lcssa = phi i32 [ %5, %4 ], [ %8, %.lr.ph ]
  store i32 %.017.lcssa, ptr %2, align 4, !tbaa !23
  ret void
}